Certificate:
    Data:
        Version: 3 (0x2)
        Serial Number: 2 (0x2)
    Signature Algorithm: md5WithRSAEncryption
        Issuer: C=US, ST=Michigan, L=Hastings, O=DD-WRT CA Authority/emailAddress=kwmicklatcher@gmail.com, CN=DD-WRT CA Authority
        Validity
            Not Before: Jul 28 08:16:57 2017 GMT
            Not After : Jul 29 00:59:59 2018 GMT
        Subject: C=US, ST=Michigan, L=Hastings, O=DD-WRT CA Authority, CN=test/emailAddress=kwmicklatcher@gmail.com
        Subject Public Key Info:
            Public Key Algorithm: rsaEncryption
                Public-Key: (2048 bit)
                Modulus:
                    00:b4:08:6a:5b:6c:fd:a9:4e:5a:14:f8:63:fe:01:
                    20:dd:8f:15:4f:06:73:94:68:30:11:82:50:d7:4f:
                    e8:31:77:4d:b0:8e:f8:f7:21:30:f2:cd:53:24:1f:
                    3f:68:c7:ec:a1:71:9b:41:0a:50:e2:12:e6:3d:3a:
                    e8:7e:97:31:78:2d:6b:5d:3a:e8:2f:3a:8c:53:71:
                    9a:e3:4c:eb:ec:08:b9:e8:10:29:ec:41:bf:1c:b6:
                    80:a7:07:75:81:7f:14:77:53:1a:fb:d0:8a:3b:82:
                    ae:e6:37:50:05:76:c2:b3:1c:71:df:d9:d7:2d:13:
                    75:cb:13:01:f3:ee:f7:5a:aa:de:cf:e4:ab:8c:cf:
                    eb:71:87:14:e9:92:6c:18:ab:14:34:0d:f6:38:30:
                    74:43:8f:37:0b:10:ca:3f:8d:aa:3d:8a:17:5a:0e:
                    f6:5f:00:1b:bf:0a:d1:cc:17:36:28:aa:97:58:5d:
                    c6:35:da:cb:ca:8b:fb:a4:92:6a:64:26:01:44:69:
                    5a:30:31:e1:40:ce:af:df:b3:34:7d:73:40:b2:39:
                    75:ae:8d:7e:44:29:42:7d:bc:50:c8:6f:75:21:40:
                    34:bd:25:47:c6:2e:ff:ea:1b:ec:68:4c:b5:c9:51:
                    bf:ad:83:1f:34:0d:0b:c1:3d:6e:6e:bf:ab:0d:9d:
                    00:29
                Exponent: 65537 (0x10001)
        X509v3 extensions:
            X509v3 Extended Key Usage: 
                TLS Web Client Authentication
            X509v3 CRL Distribution Points: 

                Full Name:
                  URI:http://www.example.com/example_ca.crl

    Signature Algorithm: md5WithRSAEncryption
         0b:3e:2c:20:a9:c9:76:b1:c5:92:eb:30:7f:f5:85:5b:86:40:
         00:4c:8c:d2:ee:a8:ee:47:2e:38:6f:00:6e:e4:b8:b3:9d:b4:
         cb:7e:b2:ab:b2:0f:99:2b:93:2d:a8:6e:d8:49:dc:5d:b3:76:
         08:89:66:8f:56:7a:1f:70:ed:e3:f0:b6:cd:39:a9:9f:af:60:
         64:89:18:98:41:60:24:3c:ca:d5:ee:76:e9:ec:ec:8a:13:d8:
         94:35:6f:6e:86:55:e4:a9:7d:9b:e5:58:e5:9d:39:a0:9f:f5:
         1d:26:e4:71:27:73:1f:20:b2:4f:82:66:d1:ff:67:8d:2c:d2:
         81:05:62:df:05:59:17:a3:8b:c8:27:6e:21:5a:97:cb:6b:8e:
         49:2c:16:2b:91:b5:ef:2a:8b:88:6a:07:22:d2:2a:48:0d:97:
         3d:76:b4:fc:c2:38:9d:3d:fe:24:dc:82:bf:8e:89:3d:5c:ac:
         aa:b6:e7:87:06:2d:bf:d2:43:6c:24:20:08:74:e0:64:45:83:
         f7:26:4d:04:aa:ee:21:b2:e3:9b:58:0c:5d:43:81:91:10:d7:
         cd:41:6f:65:09:f6:9b:33:58:4a:c4:75:6b:4f:12:f8:c0:c1:
         8f:62:7d:00:3a:92:9a:d3:53:e4:a0:1c:b6:6d:0c:9a:b8:99:
         aa:70:83:8a
-----BEGIN CERTIFICATE-----
MIID6zCCAtOgAwIBAgIBAjANBgkqhkiG9w0BAQQFADCBlzELMAkGA1UEBhMCVVMx
ETAPBgNVBAgMCE1pY2hpZ2FuMREwDwYDVQQHDAhIYXN0aW5nczEcMBoGA1UECgwT
REQtV1JUIENBIEF1dGhvcml0eTEmMCQGCSqGSIb3DQEJARYXa3dtaWNrbGF0Y2hl
ckBnbWFpbC5jb20xHDAaBgNVBAMME0RELVdSVCBDQSBBdXRob3JpdHkwHhcNMTcw
NzI4MDgxNjU3WhcNMTgwNzI5MDA1OTU5WjCBiDELMAkGA1UEBhMCVVMxETAPBgNV
BAgMCE1pY2hpZ2FuMREwDwYDVQQHDAhIYXN0aW5nczEcMBoGA1UECgwTREQtV1JU
IENBIEF1dGhvcml0eTENMAsGA1UEAwwEdGVzdDEmMCQGCSqGSIb3DQEJARYXa3dt
aWNrbGF0Y2hlckBnbWFpbC5jb20wggEiMA0GCSqGSIb3DQEBAQUAA4IBDwAwggEK
AoIBAQC0CGpbbP2pTloU+GP+ASDdjxVPBnOUaDARglDXT+gxd02wjvj3ITDyzVMk
Hz9ox+yhcZtBClDiEuY9Ouh+lzF4LWtdOugvOoxTcZrjTOvsCLnoECnsQb8ctoCn
B3WBfxR3Uxr70Io7gq7mN1AFdsKzHHHf2dctE3XLEwHz7vdaqt7P5KuMz+txhxTp
kmwYqxQ0DfY4MHRDjzcLEMo/jao9ihdaDvZfABu/CtHMFzYoqpdYXcY12svKi/uk
kmpkJgFEaVowMeFAzq/fszR9c0CyOXWujX5EKUJ9vFDIb3UhQDS9JUfGLv/qG+xo
TLXJUb+tgx80DQvBPW5uv6sNnQApAgMBAAGjTzBNMBMGA1UdJQQMMAoGCCsGAQUF
BwMCMDYGA1UdHwQvMC0wK6ApoCeGJWh0dHA6Ly93d3cuZXhhbXBsZS5jb20vZXhh
bXBsZV9jYS5jcmwwDQYJKoZIhvcNAQEEBQADggEBAAs+LCCpyXaxxZLrMH/1hVuG
QABMjNLuqO5HLjhvAG7kuLOdtMt+squyD5krky2obthJ3F2zdgiJZo9Weh9w7ePw
ts05qZ+vYGSJGJhBYCQ8ytXuduns7IoT2JQ1b26GVeSpfZvlWOWdOaCf9R0m5HEn
cx8gsk+CZtH/Z40s0oEFYt8FWReji8gnbiFal8trjkksFiuRte8qi4hqByLSKkgN
lz12tPzCOJ09/iTcgr+OiT1crKq254cGLb/SQ2wkIAh04GRFg/cmTQSq7iGy45tY
DF1DgZEQ181Bb2UJ9pszWErEdWtPEvjAwY9ifQA6kprTU+SgHLZtDJq4mapwg4o=
-----END CERTIFICATE-----
